target datalayout = "e-m:e-p270:32:32-p271:32:32-p272:64:64-i64:64-i128:128-f80:128-n8:16:32:64-S128"
target triple = "x86_64-pc-linux-gnu"

%struct.option_handler = type { ptr, ptr, ptr }
%struct.wtapng_block_s = type { i32, i32, ptr, ptr, ptr }
%struct.section_info_t = type { i32, i16, i16, ptr, i64, i32, i64, i64 }

@option_handlers = internal global [7 x ptr] zeroinitializer, align 16

; Function Attrs: nounwind uwtable
define internal i32 @pcapng_process_unhandled_option(ptr noundef %0, i32 noundef %1, ptr noundef %2, i16 noundef zeroext %3, i16 noundef zeroext %4, ptr noundef %5, ptr noundef %6, ptr noundef %7) #0 {
  %9 = alloca i32, align 4
  %10 = alloca ptr, align 8
  %11 = alloca i32, align 4
  %12 = alloca ptr, align 8
  %13 = alloca i16, align 2
  %14 = alloca i16, align 2
  %15 = alloca ptr, align 8
  %16 = alloca ptr, align 8
  %17 = alloca ptr, align 8
  %18 = alloca ptr, align 8
  store ptr %0, ptr %10, align 8
  store i32 %1, ptr %11, align 4
  store ptr %2, ptr %12, align 8
  store i16 %3, ptr %13, align 2
  store i16 %4, ptr %14, align 2
  store ptr %5, ptr %15, align 8
  store ptr %6, ptr %16, align 8
  store ptr %7, ptr %17, align 8
  %19 = load i32, ptr %11, align 4
  %20 = zext i32 %19 to i64
  %21 = getelementptr [7 x ptr], ptr @option_handlers, i64 0, i64 %20
  %22 = load ptr, ptr %21, align 8
  %23 = icmp ne ptr %22, null
  br i1 %23, label %24, label %54

24:                                               ; preds = %8
  %25 = load i32, ptr %11, align 4
  %26 = zext i32 %25 to i64
  %27 = getelementptr [7 x ptr], ptr @option_handlers, i64 0, i64 %26
  %28 = load ptr, ptr %27, align 8
  %29 = load i16, ptr %13, align 2
  %30 = zext i16 %29 to i32
  %31 = zext i32 %30 to i64
  %32 = inttoptr i64 %31 to ptr
  %33 = call ptr @g_hash_table_lookup(ptr noundef %28, ptr noundef %32)
  store ptr %33, ptr %18, align 8
  %34 = icmp ne ptr %33, null
  br i1 %34, label %35, label %54

35:                                               ; preds = %24
  %36 = load ptr, ptr %18, align 8
  %37 = getelementptr inbounds %struct.option_handler, ptr %36, i32 0, i32 0
  %38 = load ptr, ptr %37, align 8
  %39 = load ptr, ptr %10, align 8
  %40 = getelementptr inbounds %struct.wtapng_block_s, ptr %39, i32 0, i32 2
  %41 = load ptr, ptr %40, align 8
  %42 = load ptr, ptr %12, align 8
  %43 = getelementptr inbounds %struct.section_info_t, ptr %42, i32 0, i32 0
  %44 = load i32, ptr %43, align 8
  %45 = load i16, ptr %14, align 2
  %46 = zext i16 %45 to i32
  %47 = load ptr, ptr %15, align 8
  %48 = load ptr, ptr %16, align 8
  %49 = load ptr, ptr %17, align 8
  %50 = call i32 %38(ptr noundef %41, i32 noundef %44, i32 noundef %46, ptr noundef %47, ptr noundef %48, ptr noundef %49)
  %51 = icmp ne i32 %50, 0
  br i1 %51, label %53, label %52

52:                                               ; preds = %35
  store i32 0, ptr %9, align 4
  br label %55

53:                                               ; preds = %35
  br label %54

54:                                               ; preds = %53, %24, %8
  store i32 1, ptr %9, align 4
  br label %55

55:                                               ; preds = %54, %52
  %56 = load i32, ptr %9, align 4
  ret i32 %56
}

; Function Attrs: nounwind uwtable
define void @pcapng_process_uint64_option(ptr noundef %0, ptr noundef %1, i32 noundef %2, i16 noundef zeroext %3, i16 noundef zeroext %4, ptr noundef %5) #0 {
  %7 = alloca ptr, align 8
  %8 = alloca ptr, align 8
  %9 = alloca i32, align 4
  %10 = alloca i16, align 2
  %11 = alloca i16, align 2
  %12 = alloca ptr, align 8
  %13 = alloca i64, align 8
  store ptr %0, ptr %7, align 8
  store ptr %1, ptr %8, align 8
  store i32 %2, ptr %9, align 4
  store i16 %3, ptr %10, align 2
  store i16 %4, ptr %11, align 2
  store ptr %5, ptr %12, align 8
  %14 = load i16, ptr %11, align 2
  %15 = zext i16 %14 to i32
  %16 = icmp eq i32 %15, 8
  br i1 %16, label %17, label %101

17:                                               ; preds = %6
  %18 = load ptr, ptr %12, align 8
  call void @llvm.memcpy.p0.p0.i64(ptr align 8 %13, ptr align 1 %18, i64 8, i1 false)
  %19 = load i32, ptr %9, align 4
  switch i32 %19, label %92 [
    i32 0, label %20
    i32 1, label %58
    i32 2, label %90
  ]

20:                                               ; preds = %17
  %21 = load ptr, ptr %8, align 8
  %22 = getelementptr inbounds %struct.section_info_t, ptr %21, i32 0, i32 0
  %23 = load i32, ptr %22, align 8
  %24 = icmp ne i32 %23, 0
  br i1 %24, label %25, label %57

25:                                               ; preds = %20
  %26 = load i64, ptr %13, align 8
  %27 = and i64 %26, 255
  %28 = shl i64 %27, 56
  %29 = load i64, ptr %13, align 8
  %30 = and i64 %29, 65280
  %31 = shl i64 %30, 40
  %32 = or i64 %28, %31
  %33 = load i64, ptr %13, align 8
  %34 = and i64 %33, 16711680
  %35 = shl i64 %34, 24
  %36 = or i64 %32, %35
  %37 = load i64, ptr %13, align 8
  %38 = and i64 %37, 4278190080
  %39 = shl i64 %38, 8
  %40 = or i64 %36, %39
  %41 = load i64, ptr %13, align 8
  %42 = and i64 %41, 1095216660480
  %43 = lshr i64 %42, 8
  %44 = or i64 %40, %43
  %45 = load i64, ptr %13, align 8
  %46 = and i64 %45, 280375465082880
  %47 = lshr i64 %46, 24
  %48 = or i64 %44, %47
  %49 = load i64, ptr %13, align 8
  %50 = and i64 %49, 71776119061217280
  %51 = lshr i64 %50, 40
  %52 = or i64 %48, %51
  %53 = load i64, ptr %13, align 8
  %54 = and i64 %53, -72057594037927936
  %55 = lshr i64 %54, 56
  %56 = or i64 %52, %55
  store i64 %56, ptr %13, align 8
  br label %57

57:                                               ; preds = %25, %20
  br label %93

58:                                               ; preds = %17
  %59 = load i64, ptr %13, align 8
  %60 = and i64 %59, 255
  %61 = shl i64 %60, 56
  %62 = load i64, ptr %13, align 8
  %63 = and i64 %62, 65280
  %64 = shl i64 %63, 40
  %65 = or i64 %61, %64
  %66 = load i64, ptr %13, align 8
  %67 = and i64 %66, 16711680
  %68 = shl i64 %67, 24
  %69 = or i64 %65, %68
  %70 = load i64, ptr %13, align 8
  %71 = and i64 %70, 4278190080
  %72 = shl i64 %71, 8
  %73 = or i64 %69, %72
  %74 = load i64, ptr %13, align 8
  %75 = and i64 %74, 1095216660480
  %76 = lshr i64 %75, 8
  %77 = or i64 %73, %76
  %78 = load i64, ptr %13, align 8
  %79 = and i64 %78, 280375465082880
  %80 = lshr i64 %79, 24
  %81 = or i64 %77, %80
  %82 = load i64, ptr %13, align 8
  %83 = and i64 %82, 71776119061217280
  %84 = lshr i64 %83, 40
  %85 = or i64 %81, %84
  %86 = load i64, ptr %13, align 8
  %87 = and i64 %86, -72057594037927936
  %88 = lshr i64 %87, 56
  %89 = or i64 %85, %88
  store i64 %89, ptr %13, align 8
  br label %93

90:                                               ; preds = %17
  %91 = load i64, ptr %13, align 8
  store i64 %91, ptr %13, align 8
  br label %93

92:                                               ; preds = %17
  br label %101

93:                                               ; preds = %90, %58, %57
  %94 = load ptr, ptr %7, align 8
  %95 = getelementptr inbounds %struct.wtapng_block_s, ptr %94, i32 0, i32 2
  %96 = load ptr, ptr %95, align 8
  %97 = load i16, ptr %10, align 2
  %98 = zext i16 %97 to i32
  %99 = load i64, ptr %13, align 8
  %100 = call i32 @wtap_block_add_uint64_option(ptr noundef %96, i32 noundef %98, i64 noundef %99)
  br label %101

101:                                              ; preds = %93, %92, %6
  ret void
}

; Function Attrs: nounwind uwtable
define void @pcapng_process_timestamp_option(ptr noundef %0, ptr noundef %1, i32 noundef %2, i16 noundef zeroext %3, i16 noundef zeroext %4, ptr noundef %5) #0 {
  %7 = alloca ptr, align 8
  %8 = alloca ptr, align 8
  %9 = alloca i32, align 4
  %10 = alloca i16, align 2
  %11 = alloca i16, align 2
  %12 = alloca ptr, align 8
  %13 = alloca i32, align 4
  %14 = alloca i32, align 4
  %15 = alloca i64, align 8
  store ptr %0, ptr %7, align 8
  store ptr %1, ptr %8, align 8
  store i32 %2, ptr %9, align 4
  store i16 %3, ptr %10, align 2
  store i16 %4, ptr %11, align 2
  store ptr %5, ptr %12, align 8
  %16 = load i16, ptr %11, align 2
  %17 = zext i16 %16 to i32
  %18 = icmp eq i32 %17, 8
  br i1 %18, label %19, label %112

19:                                               ; preds = %6
  %20 = load ptr, ptr %12, align 8
  call void @llvm.memcpy.p0.p0.i64(ptr align 4 %13, ptr align 1 %20, i64 4, i1 false)
  %21 = load ptr, ptr %12, align 8
  %22 = getelementptr i8, ptr %21, i64 4
  call void @llvm.memcpy.p0.p0.i64(ptr align 4 %14, ptr align 1 %22, i64 4, i1 false)
  %23 = load i32, ptr %9, align 4
  switch i32 %23, label %95 [
    i32 0, label %24
    i32 1, label %61
    i32 2, label %92
  ]

24:                                               ; preds = %19
  %25 = load ptr, ptr %8, align 8
  %26 = getelementptr inbounds %struct.section_info_t, ptr %25, i32 0, i32 0
  %27 = load i32, ptr %26, align 8
  %28 = icmp ne i32 %27, 0
  br i1 %28, label %29, label %60

29:                                               ; preds = %24
  %30 = load i32, ptr %13, align 4
  %31 = and i32 %30, 255
  %32 = shl i32 %31, 24
  %33 = load i32, ptr %13, align 4
  %34 = and i32 %33, 65280
  %35 = shl i32 %34, 8
  %36 = or i32 %32, %35
  %37 = load i32, ptr %13, align 4
  %38 = and i32 %37, 16711680
  %39 = lshr i32 %38, 8
  %40 = or i32 %36, %39
  %41 = load i32, ptr %13, align 4
  %42 = and i32 %41, -16777216
  %43 = lshr i32 %42, 24
  %44 = or i32 %40, %43
  store i32 %44, ptr %13, align 4
  %45 = load i32, ptr %14, align 4
  %46 = and i32 %45, 255
  %47 = shl i32 %46, 24
  %48 = load i32, ptr %14, align 4
  %49 = and i32 %48, 65280
  %50 = shl i32 %49, 8
  %51 = or i32 %47, %50
  %52 = load i32, ptr %14, align 4
  %53 = and i32 %52, 16711680
  %54 = lshr i32 %53, 8
  %55 = or i32 %51, %54
  %56 = load i32, ptr %14, align 4
  %57 = and i32 %56, -16777216
  %58 = lshr i32 %57, 24
  %59 = or i32 %55, %58
  store i32 %59, ptr %14, align 4
  br label %60

60:                                               ; preds = %29, %24
  br label %96

61:                                               ; preds = %19
  %62 = load i32, ptr %13, align 4
  %63 = and i32 %62, 255
  %64 = shl i32 %63, 24
  %65 = load i32, ptr %13, align 4
  %66 = and i32 %65, 65280
  %67 = shl i32 %66, 8
  %68 = or i32 %64, %67
  %69 = load i32, ptr %13, align 4
  %70 = and i32 %69, 16711680
  %71 = lshr i32 %70, 8
  %72 = or i32 %68, %71
  %73 = load i32, ptr %13, align 4
  %74 = and i32 %73, -16777216
  %75 = lshr i32 %74, 24
  %76 = or i32 %72, %75
  store i32 %76, ptr %13, align 4
  %77 = load i32, ptr %14, align 4
  %78 = and i32 %77, 255
  %79 = shl i32 %78, 24
  %80 = load i32, ptr %14, align 4
  %81 = and i32 %80, 65280
  %82 = shl i32 %81, 8
  %83 = or i32 %79, %82
  %84 = load i32, ptr %14, align 4
  %85 = and i32 %84, 16711680
  %86 = lshr i32 %85, 8
  %87 = or i32 %83, %86
  %88 = load i32, ptr %14, align 4
  %89 = and i32 %88, -16777216
  %90 = lshr i32 %89, 24
  %91 = or i32 %87, %90
  store i32 %91, ptr %14, align 4
  br label %96

92:                                               ; preds = %19
  %93 = load i32, ptr %13, align 4
  store i32 %93, ptr %13, align 4
  %94 = load i32, ptr %14, align 4
  store i32 %94, ptr %14, align 4
  br label %96

95:                                               ; preds = %19
  br label %112

96:                                               ; preds = %92, %61, %60
  %97 = load i32, ptr %13, align 4
  %98 = zext i32 %97 to i64
  store i64 %98, ptr %15, align 8
  %99 = load i64, ptr %15, align 8
  %100 = shl i64 %99, 32
  store i64 %100, ptr %15, align 8
  %101 = load i32, ptr %14, align 4
  %102 = zext i32 %101 to i64
  %103 = load i64, ptr %15, align 8
  %104 = add i64 %103, %102
  store i64 %104, ptr %15, align 8
  %105 = load ptr, ptr %7, align 8
  %106 = getelementptr inbounds %struct.wtapng_block_s, ptr %105, i32 0, i32 2
  %107 = load ptr, ptr %106, align 8
  %108 = load i16, ptr %10, align 2
  %109 = zext i16 %108 to i32
  %110 = load i64, ptr %15, align 8
  %111 = call i32 @wtap_block_add_uint64_option(ptr noundef %107, i32 noundef %109, i64 noundef %110)
  br label %112

112:                                              ; preds = %96, %95, %6
  ret void
}

; Function Attrs: nounwind uwtable
define internal i32 @pcapng_process_interface_statistics_block_option(ptr noundef %0, ptr noundef %1, i16 noundef zeroext %2, i16 noundef zeroext %3, ptr noundef %4, ptr noundef %5, ptr noundef %6) #0 {
  %8 = alloca i32, align 4
  %9 = alloca ptr, align 8
  %10 = alloca ptr, align 8
  %11 = alloca i16, align 2
  %12 = alloca i16, align 2
  %13 = alloca ptr, align 8
  %14 = alloca ptr, align 8
  %15 = alloca ptr, align 8
  store ptr %0, ptr %9, align 8
  store ptr %1, ptr %10, align 8
  store i16 %2, ptr %11, align 2
  store i16 %3, ptr %12, align 2
  store ptr %4, ptr %13, align 8
  store ptr %5, ptr %14, align 8
  store ptr %6, ptr %15, align 8
  %16 = load i16, ptr %11, align 2
  %17 = zext i16 %16 to i32
  switch i32 %17, label %60 [
    i32 2, label %18
    i32 3, label %24
    i32 4, label %30
    i32 5, label %36
    i32 6, label %42
    i32 7, label %48
    i32 8, label %54
  ]

18:                                               ; preds = %7
  %19 = load ptr, ptr %9, align 8
  %20 = load ptr, ptr %10, align 8
  %21 = load i16, ptr %11, align 2
  %22 = load i16, ptr %12, align 2
  %23 = load ptr, ptr %13, align 8
  call void @pcapng_process_timestamp_option(ptr noundef %19, ptr noundef %20, i32 noundef 0, i16 noundef zeroext %21, i16 noundef zeroext %22, ptr noundef %23)
  br label %72

24:                                               ; preds = %7
  %25 = load ptr, ptr %9, align 8
  %26 = load ptr, ptr %10, align 8
  %27 = load i16, ptr %11, align 2
  %28 = load i16, ptr %12, align 2
  %29 = load ptr, ptr %13, align 8
  call void @pcapng_process_timestamp_option(ptr noundef %25, ptr noundef %26, i32 noundef 0, i16 noundef zeroext %27, i16 noundef zeroext %28, ptr noundef %29)
  br label %72

30:                                               ; preds = %7
  %31 = load ptr, ptr %9, align 8
  %32 = load ptr, ptr %10, align 8
  %33 = load i16, ptr %11, align 2
  %34 = load i16, ptr %12, align 2
  %35 = load ptr, ptr %13, align 8
  call void @pcapng_process_uint64_option(ptr noundef %31, ptr noundef %32, i32 noundef 0, i16 noundef zeroext %33, i16 noundef zeroext %34, ptr noundef %35)
  br label %72

36:                                               ; preds = %7
  %37 = load ptr, ptr %9, align 8
  %38 = load ptr, ptr %10, align 8
  %39 = load i16, ptr %11, align 2
  %40 = load i16, ptr %12, align 2
  %41 = load ptr, ptr %13, align 8
  call void @pcapng_process_uint64_option(ptr noundef %37, ptr noundef %38, i32 noundef 0, i16 noundef zeroext %39, i16 noundef zeroext %40, ptr noundef %41)
  br label %72

42:                                               ; preds = %7
  %43 = load ptr, ptr %9, align 8
  %44 = load ptr, ptr %10, align 8
  %45 = load i16, ptr %11, align 2
  %46 = load i16, ptr %12, align 2
  %47 = load ptr, ptr %13, align 8
  call void @pcapng_process_uint64_option(ptr noundef %43, ptr noundef %44, i32 noundef 0, i16 noundef zeroext %45, i16 noundef zeroext %46, ptr noundef %47)
  br label %72

48:                                               ; preds = %7
  %49 = load ptr, ptr %9, align 8
  %50 = load ptr, ptr %10, align 8
  %51 = load i16, ptr %11, align 2
  %52 = load i16, ptr %12, align 2
  %53 = load ptr, ptr %13, align 8
  call void @pcapng_process_uint64_option(ptr noundef %49, ptr noundef %50, i32 noundef 0, i16 noundef zeroext %51, i16 noundef zeroext %52, ptr noundef %53)
  br label %72

54:                                               ; preds = %7
  %55 = load ptr, ptr %9, align 8
  %56 = load ptr, ptr %10, align 8
  %57 = load i16, ptr %11, align 2
  %58 = load i16, ptr %12, align 2
  %59 = load ptr, ptr %13, align 8
  call void @pcapng_process_uint64_option(ptr noundef %55, ptr noundef %56, i32 noundef 0, i16 noundef zeroext %57, i16 noundef zeroext %58, ptr noundef %59)
  br label %72

60:                                               ; preds = %7
  %61 = load ptr, ptr %9, align 8
  %62 = load ptr, ptr %10, align 8
  %63 = load i16, ptr %11, align 2
  %64 = load i16, ptr %12, align 2
  %65 = load ptr, ptr %13, align 8
  %66 = load ptr, ptr %14, align 8
  %67 = load ptr, ptr %15, align 8
  %68 = call i32 @pcapng_process_unhandled_option(ptr noundef %61, i32 noundef 4, ptr noundef %62, i16 noundef zeroext %63, i16 noundef zeroext %64, ptr noundef %65, ptr noundef %66, ptr noundef %67)
  %69 = icmp ne i32 %68, 0
  br i1 %69, label %71, label %70

70:                                               ; preds = %60
  store i32 0, ptr %8, align 4
  br label %73

71:                                               ; preds = %60
  br label %72

72:                                               ; preds = %71, %54, %48, %42, %36, %30, %24, %18
  store i32 1, ptr %8, align 4
  br label %73

73:                                               ; preds = %72, %70
  %74 = load i32, ptr %8, align 4
  ret i32 %74
}