; Function Attrs: nounwind uwtable
define internal range(i32 0, 2) i32 @pcapng_process_interface_statistics_block_option(ptr noundef readonly captures(none) %0, ptr noundef readonly captures(none) %1, i16 noundef zeroext %2, i16 noundef zeroext %3, ptr noundef %4, ptr noundef %5, ptr noundef %6) #0 {
  switch i16 %2, label %76 [
    i16 2, label %8
    i16 3, label %22
    i16 4, label %36
    i16 5, label %44
    i16 6, label %52
    i16 7, label %60
    i16 8, label %68
  ]

8:                                                ; preds = %7
  %9 = icmp eq i16 %3, 8
  br i1 %9, label %10, label %pcapng_process_timestamp_option.exit

10:                                               ; preds = %8
  %.0.copyload13.i = load i32, ptr %4, align 1
  %11 = getelementptr i8, ptr %4, i64 4
  %.0.copyload.i = load i32, ptr %11, align 1
  %12 = load i32, ptr %1, align 8
  %.not.i = icmp eq i32 %12, 0
  %13 = tail call i32 @llvm.bswap.i32(i32 %.0.copyload13.i)
  %14 = tail call i32 @llvm.bswap.i32(i32 %.0.copyload.i)
  %.030.i = select i1 %.not.i, i32 %.0.copyload.i, i32 %14
  %.0.i = select i1 %.not.i, i32 %.0.copyload13.i, i32 %13
  %15 = zext i32 %.0.i to i64
  %16 = shl nuw i64 %15, 32
  %17 = zext i32 %.030.i to i64
  %18 = or disjoint i64 %16, %17
  %19 = getelementptr inbounds nuw i8, ptr %0, i64 8
  %20 = load ptr, ptr %19, align 8
  %21 = tail call i32 @wtap_block_add_uint64_option(ptr noundef %20, i32 noundef 2, i64 noundef %18) #16
  br label %pcapng_process_timestamp_option.exit

22:                                               ; preds = %7
  %23 = icmp eq i16 %3, 8
  br i1 %23, label %24, label %pcapng_process_timestamp_option.exit

24:                                               ; preds = %22
  %.0.copyload13.i43 = load i32, ptr %4, align 1
  %25 = getelementptr i8, ptr %4, i64 4
  %.0.copyload.i44 = load i32, ptr %25, align 1
  %26 = load i32, ptr %1, align 8
  %.not.i45 = icmp eq i32 %26, 0
  %27 = tail call i32 @llvm.bswap.i32(i32 %.0.copyload13.i43)
  %28 = tail call i32 @llvm.bswap.i32(i32 %.0.copyload.i44)
  %.030.i46 = select i1 %.not.i45, i32 %.0.copyload.i44, i32 %28
  %.0.i47 = select i1 %.not.i45, i32 %.0.copyload13.i43, i32 %27
  %29 = zext i32 %.0.i47 to i64
  %30 = shl nuw i64 %29, 32
  %31 = zext i32 %.030.i46 to i64
  %32 = or disjoint i64 %30, %31
  %33 = getelementptr inbounds nuw i8, ptr %0, i64 8
  %34 = load ptr, ptr %33, align 8
  %35 = tail call i32 @wtap_block_add_uint64_option(ptr noundef %34, i32 noundef 3, i64 noundef %32) #16
  br label %pcapng_process_timestamp_option.exit

36:                                               ; preds = %7
  %37 = icmp eq i16 %3, 8
  br i1 %37, label %38, label %pcapng_process_timestamp_option.exit

38:                                               ; preds = %36
  %.0.copyload.i49 = load i64, ptr %4, align 1
  %39 = load i32, ptr %1, align 8
  %.not.i50 = icmp eq i32 %39, 0
  %40 = tail call i64 @llvm.bswap.i64(i64 %.0.copyload.i49)
  %spec.select.i = select i1 %.not.i50, i64 %.0.copyload.i49, i64 %40
  %41 = getelementptr inbounds nuw i8, ptr %0, i64 8
  %42 = load ptr, ptr %41, align 8
  %43 = tail call i32 @wtap_block_add_uint64_option(ptr noundef %42, i32 noundef 4, i64 noundef %spec.select.i) #16
  br label %pcapng_process_timestamp_option.exit

44:                                               ; preds = %7
  %45 = icmp eq i16 %3, 8
  br i1 %45, label %46, label %pcapng_process_timestamp_option.exit

46:                                               ; preds = %44
  %.0.copyload.i52 = load i64, ptr %4, align 1
  %47 = load i32, ptr %1, align 8
  %.not.i53 = icmp eq i32 %47, 0
  %48 = tail call i64 @llvm.bswap.i64(i64 %.0.copyload.i52)
  %spec.select.i54 = select i1 %.not.i53, i64 %.0.copyload.i52, i64 %48
  %49 = getelementptr inbounds nuw i8, ptr %0, i64 8
  %50 = load ptr, ptr %49, align 8
  %51 = tail call i32 @wtap_block_add_uint64_option(ptr noundef %50, i32 noundef 5, i64 noundef %spec.select.i54) #16
  br label %pcapng_process_timestamp_option.exit

52:                                               ; preds = %7
  %53 = icmp eq i16 %3, 8
  br i1 %53, label %54, label %pcapng_process_timestamp_option.exit

54:                                               ; preds = %52
  %.0.copyload.i57 = load i64, ptr %4, align 1
  %55 = load i32, ptr %1, align 8
  %.not.i58 = icmp eq i32 %55, 0
  %56 = tail call i64 @llvm.bswap.i64(i64 %.0.copyload.i57)
  %spec.select.i59 = select i1 %.not.i58, i64 %.0.copyload.i57, i64 %56
  %57 = getelementptr inbounds nuw i8, ptr %0, i64 8
  %58 = load ptr, ptr %57, align 8
  %59 = tail call i32 @wtap_block_add_uint64_option(ptr noundef %58, i32 noundef 6, i64 noundef %spec.select.i59) #16
  br label %pcapng_process_timestamp_option.exit

60:                                               ; preds = %7
  %61 = icmp eq i16 %3, 8
  br i1 %61, label %62, label %pcapng_process_timestamp_option.exit

62:                                               ; preds = %60
  %.0.copyload.i62 = load i64, ptr %4, align 1
  %63 = load i32, ptr %1, align 8
  %.not.i63 = icmp eq i32 %63, 0
  %64 = tail call i64 @llvm.bswap.i64(i64 %.0.copyload.i62)
  %spec.select.i64 = select i1 %.not.i63, i64 %.0.copyload.i62, i64 %64
  %65 = getelementptr inbounds nuw i8, ptr %0, i64 8
  %66 = load ptr, ptr %65, align 8
  %67 = tail call i32 @wtap_block_add_uint64_option(ptr noundef %66, i32 noundef 7, i64 noundef %spec.select.i64) #16
  br label %pcapng_process_timestamp_option.exit

68:                                               ; preds = %7
  %69 = icmp eq i16 %3, 8
  br i1 %69, label %70, label %pcapng_process_timestamp_option.exit

70:                                               ; preds = %68
  %.0.copyload.i67 = load i64, ptr %4, align 1
  %71 = load i32, ptr %1, align 8
  %.not.i68 = icmp eq i32 %71, 0
  %72 = tail call i64 @llvm.bswap.i64(i64 %.0.copyload.i67)
  %spec.select.i69 = select i1 %.not.i68, i64 %.0.copyload.i67, i64 %72
  %73 = getelementptr inbounds nuw i8, ptr %0, i64 8
  %74 = load ptr, ptr %73, align 8
  %75 = tail call i32 @wtap_block_add_uint64_option(ptr noundef %74, i32 noundef 8, i64 noundef %spec.select.i69) #16
  br label %pcapng_process_timestamp_option.exit

76:                                               ; preds = %7
  %77 = load ptr, ptr getelementptr inbounds nuw (i8, ptr @option_handlers, i64 32), align 16
  %.not.i72 = icmp eq ptr %77, null
  br i1 %.not.i72, label %pcapng_process_timestamp_option.exit, label %78

78:                                               ; preds = %76
  %79 = zext i16 %2 to i64
  %80 = inttoptr i64 %79 to ptr
  %81 = tail call ptr @g_hash_table_lookup(ptr noundef nonnull %77, ptr noundef %80) #16
  %.not12.i = icmp eq ptr %81, null
  br i1 %.not12.i, label %pcapng_process_timestamp_option.exit, label %82

82:                                               ; preds = %78
  %83 = load ptr, ptr %81, align 8
  %84 = getelementptr inbounds nuw i8, ptr %0, i64 8
  %85 = load ptr, ptr %84, align 8
  %86 = load i32, ptr %1, align 8
  %87 = zext i16 %3 to i32
  %88 = tail call i32 %83(ptr noundef %85, i32 noundef %86, i32 noundef %87, ptr noundef %4, ptr noundef %5, ptr noundef %6) #16
  %.not13.i = icmp ne i32 %88, 0
  %spec.select = zext i1 %.not13.i to i32
  br label %pcapng_process_timestamp_option.exit

pcapng_process_timestamp_option.exit:             ; preds = %82, %8, %10, %22, %24, %36, %38, %44, %46, %52, %54, %60, %62, %68, %70, %76, %78
  %.0 = phi i32 [ 1, %78 ], [ 1, %76 ], [ 1, %70 ], [ 1, %68 ], [ 1, %62 ], [ 1, %60 ], [ 1, %54 ], [ 1, %52 ], [ 1, %46 ], [ 1, %44 ], [ 1, %38 ], [ 1, %36 ], [ 1, %24 ], [ 1, %22 ], [ 1, %10 ], [ 1, %8 ], [ %spec.select, %82 ]
  ret i32 %.0
}